target datalayout = "e-m:e-p270:32:32-p271:32:32-p272:64:64-i64:64-i128:128-f80:128-n8:16:32:64-S128"
target triple = "x86_64-unknown-linux-gnu"

; Function Attrs: mustprogress nounwind uwtable
define hidden noundef i32 @_ZN3sat6binspr7mk_maskEj(ptr noundef nonnull align 8 dereferenceable(148) %this, i32 noundef %i) #4 align 2 {
entry:
  %this.addr = alloca ptr, align 8
  %i.addr = alloca i32, align 4
  %mask0 = alloca i32, align 4
  %pos = alloca i32, align 4
  %mask = alloca i32, align 4
  store ptr %this, ptr %this.addr, align 8
  store i32 %i, ptr %i.addr, align 4
  %0 = load i32, ptr %i.addr, align 4
  %shl = shl i32 1, %0
  %shl2 = shl i32 1, %shl
  %sub = sub nsw i32 %shl2, 1
  store i32 %sub, ptr %mask0, align 4
  %1 = load i32, ptr %i.addr, align 4
  %add = add i32 %1, 1
  %shl3 = shl i32 1, %add
  store i32 %shl3, ptr %pos, align 4
  %2 = load i32, ptr %mask0, align 4
  store i32 %2, ptr %mask, align 4
  br label %while.cond

while.cond:                                       ; preds = %while.body, %entry
  %3 = load i32, ptr %pos, align 4
  %cmp = icmp ult i32 %3, 32
  br i1 %cmp, label %while.body, label %while.end

while.body:                                       ; preds = %while.cond
  %4 = load i32, ptr %mask0, align 4
  %5 = load i32, ptr %pos, align 4
  %shl4 = shl i32 %4, %5
  %6 = load i32, ptr %mask, align 4
  %or = or i32 %6, %shl4
  store i32 %or, ptr %mask, align 4
  %7 = load i32, ptr %i.addr, align 4
  %add5 = add i32 %7, 1
  %shl6 = shl i32 1, %add5
  %8 = load i32, ptr %pos, align 4
  %add7 = add i32 %8, %shl6
  store i32 %add7, ptr %pos, align 4
  br label %while.cond, !llvm.loop !12

while.end:                                        ; preds = %while.cond
  %9 = load i32, ptr %mask, align 4
  ret i32 %9
}