; Function Attrs: mustprogress nofree norecurse nosync nounwind willreturn memory(none) uwtable
define hidden noundef i32 @_ZN3sat6binspr7mk_maskEj(ptr nocapture noundef nonnull readnone align 8 dereferenceable(148) %this, i32 noundef %i) local_unnamed_addr #12 align 2 {
entry:
  %shl = shl nuw i32 1, %i
  %notmask = shl nsw i32 -1, %shl
  %sub = xor i32 %notmask, -1
  %add = add i32 %i, 1
  %shl3 = shl nuw i32 1, %add
  %cmp7 = icmp ult i32 %add, 5
  br i1 %cmp7, label %while.body, label %while.end

while.body:                                       ; preds = %entry, %while.body
  %mask.09 = phi i32 [ %or, %while.body ], [ %sub, %entry ]
  %pos.08 = phi i32 [ %add7, %while.body ], [ %shl3, %entry ]
  %shl4 = shl i32 %sub, %pos.08
  %or = or i32 %mask.09, %shl4
  %add7 = add nuw i32 %pos.08, %shl3
  %cmp = icmp ult i32 %add7, 32
  br i1 %cmp, label %while.body, label %while.end, !llvm.loop !11

while.end:                                        ; preds = %while.body, %entry
  %mask.0.lcssa = phi i32 [ %sub, %entry ], [ %or, %while.body ]
  ret i32 %mask.0.lcssa
}